target datalayout = "e-m:e-p270:32:32-p271:32:32-p272:64:64-i64:64-i128:128-f80:128-n8:16:32:64-S128"
target triple = "x86_64-pc-linux-gnu"

%struct.stmm_generator = type { ptr, ptr, i32 }

; Function Attrs: nounwind uwtable
define ptr @stmm_init_gen(ptr noundef %0) #0 {
  %2 = alloca ptr, align 8
  %3 = alloca ptr, align 8
  %4 = alloca ptr, align 8
  store ptr %0, ptr %3, align 8
  %5 = call noalias ptr @malloc(i64 noundef 24) #5
  store ptr %5, ptr %4, align 8
  %6 = load ptr, ptr %4, align 8
  %7 = icmp eq ptr %6, null
  br i1 %7, label %8, label %9

8:                                                ; preds = %1
  store ptr null, ptr %2, align 8
  br label %18

9:                                                ; preds = %1
  %10 = load ptr, ptr %3, align 8
  %11 = load ptr, ptr %4, align 8
  %12 = getelementptr inbounds %struct.stmm_generator, ptr %11, i32 0, i32 0
  store ptr %10, ptr %12, align 8
  %13 = load ptr, ptr %4, align 8
  %14 = getelementptr inbounds %struct.stmm_generator, ptr %13, i32 0, i32 1
  store ptr null, ptr %14, align 8
  %15 = load ptr, ptr %4, align 8
  %16 = getelementptr inbounds %struct.stmm_generator, ptr %15, i32 0, i32 2
  store i32 0, ptr %16, align 8
  %17 = load ptr, ptr %4, align 8
  store ptr %17, ptr %2, align 8
  br label %18

18:                                               ; preds = %9, %8
  %19 = load ptr, ptr %2, align 8
  ret ptr %19
}